; Function Attrs: nofree norecurse nosync nounwind memory(argmem: readwrite) uwtable
define internal void @put_uni_luma_hv_8(ptr noundef writeonly captures(none) %0, i64 noundef %1, ptr noundef readonly captures(none) %2, i64 noundef %3, i32 noundef %4, ptr noundef readonly captures(none) %5, ptr noundef readonly captures(none) %6, i32 noundef %7) #2 {
  %9 = alloca [17280 x i16], align 16
  call void @llvm.lifetime.start.p0(i64 34560, ptr nonnull %9) #14
  %.neg = mul i64 %3, -3
  %10 = getelementptr inbounds i8, ptr %2, i64 %.neg
  %11 = add i32 %4, 7
  %12 = icmp sgt i32 %4, -7
  br i1 %12, label %.preheader84.lr.ph, label %._crit_edge94

.preheader84.lr.ph:                               ; preds = %8
  %13 = icmp sgt i32 %7, 0
  br i1 %13, label %.preheader84.lr.ph.split.us, label %._crit_edge89

.preheader84.lr.ph.split.us:                      ; preds = %.preheader84.lr.ph
  %14 = getelementptr inbounds nuw i8, ptr %5, i64 7
  %15 = getelementptr inbounds nuw i8, ptr %5, i64 6
  %16 = getelementptr inbounds nuw i8, ptr %5, i64 5
  %17 = getelementptr inbounds nuw i8, ptr %5, i64 4
  %18 = getelementptr inbounds nuw i8, ptr %5, i64 3
  %19 = getelementptr inbounds nuw i8, ptr %5, i64 2
  %20 = getelementptr inbounds nuw i8, ptr %5, i64 1
  %21 = load i8, ptr %5, align 1, !tbaa !128
  %22 = sext i8 %21 to i16
  %23 = load i8, ptr %20, align 1, !tbaa !128
  %24 = sext i8 %23 to i16
  %25 = load i8, ptr %19, align 1, !tbaa !128
  %26 = sext i8 %25 to i16
  %27 = load i8, ptr %18, align 1, !tbaa !128
  %28 = sext i8 %27 to i16
  %29 = load i8, ptr %17, align 1, !tbaa !128
  %30 = sext i8 %29 to i16
  %31 = load i8, ptr %16, align 1, !tbaa !128
  %32 = sext i8 %31 to i16
  %33 = load i8, ptr %15, align 1, !tbaa !128
  %34 = sext i8 %33 to i16
  %35 = load i8, ptr %14, align 1, !tbaa !128
  %36 = sext i8 %35 to i16
  %smax = tail call i32 @llvm.smax.i32(i32 %11, i32 1)
  %wide.trip.count = zext nneg i32 %7 to i64
  br label %.preheader84.us

.preheader84.us:                                  ; preds = %._crit_edge.us, %.preheader84.lr.ph.split.us
  %.088.us = phi ptr [ %9, %.preheader84.lr.ph.split.us ], [ %79, %._crit_edge.us ]
  %.08187.us = phi i32 [ 0, %.preheader84.lr.ph.split.us ], [ %80, %._crit_edge.us ]
  %.08286.us = phi ptr [ %10, %.preheader84.lr.ph.split.us ], [ %78, %._crit_edge.us ]
  %.pre = load i8, ptr %.08286.us, align 1, !tbaa !128
  br label %37

37:                                               ; preds = %.preheader84.us, %37
  %38 = phi i8 [ %.pre, %.preheader84.us ], [ %58, %37 ]
  %indvars.iv = phi i64 [ 0, %.preheader84.us ], [ %indvars.iv.next, %37 ]
  %39 = getelementptr i8, ptr %.08286.us, i64 %indvars.iv
  %40 = getelementptr i8, ptr %39, i64 -3
  %41 = load i8, ptr %40, align 1, !tbaa !128
  %42 = zext i8 %41 to i16
  %43 = mul nsw i16 %42, %22
  %44 = getelementptr i8, ptr %39, i64 -2
  %45 = load i8, ptr %44, align 1, !tbaa !128
  %46 = zext i8 %45 to i16
  %47 = mul nsw i16 %46, %24
  %48 = add i16 %47, %43
  %49 = getelementptr i8, ptr %39, i64 -1
  %50 = load i8, ptr %49, align 1, !tbaa !128
  %51 = zext i8 %50 to i16
  %52 = mul nsw i16 %51, %26
  %53 = add i16 %48, %52
  %54 = zext i8 %38 to i16
  %55 = mul nsw i16 %54, %28
  %56 = add i16 %53, %55
  %indvars.iv.next = add nuw nsw i64 %indvars.iv, 1
  %57 = getelementptr inbounds nuw i8, ptr %.08286.us, i64 %indvars.iv.next
  %58 = load i8, ptr %57, align 1, !tbaa !128
  %59 = zext i8 %58 to i16
  %60 = mul nsw i16 %59, %30
  %61 = add i16 %56, %60
  %62 = getelementptr inbounds nuw i8, ptr %39, i64 2
  %63 = load i8, ptr %62, align 1, !tbaa !128
  %64 = zext i8 %63 to i16
  %65 = mul nsw i16 %64, %32
  %66 = add i16 %61, %65
  %67 = getelementptr inbounds nuw i8, ptr %39, i64 3
  %68 = load i8, ptr %67, align 1, !tbaa !128
  %69 = zext i8 %68 to i16
  %70 = mul nsw i16 %69, %34
  %71 = add i16 %66, %70
  %72 = getelementptr inbounds nuw i8, ptr %39, i64 4
  %73 = load i8, ptr %72, align 1, !tbaa !128
  %74 = zext i8 %73 to i16
  %75 = mul nsw i16 %74, %36
  %76 = add i16 %71, %75
  %77 = getelementptr inbounds nuw i16, ptr %.088.us, i64 %indvars.iv
  store i16 %76, ptr %77, align 2, !tbaa !124
  %exitcond.not = icmp eq i64 %indvars.iv.next, %wide.trip.count
  br i1 %exitcond.not, label %._crit_edge.us, label %37, !llvm.loop !668

._crit_edge.us:                                   ; preds = %37
  %78 = getelementptr inbounds i8, ptr %.08286.us, i64 %3
  %79 = getelementptr inbounds nuw i8, ptr %.088.us, i64 256
  %80 = add nuw nsw i32 %.08187.us, 1
  %exitcond99.not = icmp eq i32 %80, %smax
  br i1 %exitcond99.not, label %._crit_edge89, label %.preheader84.us, !llvm.loop !669

._crit_edge89:                                    ; preds = %._crit_edge.us, %.preheader84.lr.ph
  %81 = icmp sgt i32 %4, 0
  br i1 %81, label %.preheader.lr.ph, label %._crit_edge94

.preheader.lr.ph:                                 ; preds = %._crit_edge89
  %82 = icmp sgt i32 %7, 0
  %83 = getelementptr inbounds nuw i8, ptr %6, i64 1
  %84 = getelementptr inbounds nuw i8, ptr %6, i64 2
  %85 = getelementptr inbounds nuw i8, ptr %6, i64 3
  %86 = getelementptr inbounds nuw i8, ptr %6, i64 4
  %87 = getelementptr inbounds nuw i8, ptr %6, i64 5
  %88 = getelementptr inbounds nuw i8, ptr %6, i64 6
  %89 = getelementptr inbounds nuw i8, ptr %6, i64 7
  br i1 %82, label %.preheader.us.preheader, label %._crit_edge94

.preheader.us.preheader:                          ; preds = %.preheader.lr.ph
  %90 = getelementptr inbounds nuw i8, ptr %9, i64 768
  %wide.trip.count103 = zext nneg i32 %7 to i64
  br label %.preheader.us

.preheader.us:                                    ; preds = %.preheader.us.preheader, %._crit_edge.us95
  %.193.us = phi ptr [ %153, %._crit_edge.us95 ], [ %90, %.preheader.us.preheader ]
  %.07992.us = phi i32 [ %155, %._crit_edge.us95 ], [ 0, %.preheader.us.preheader ]
  %.08391.us = phi ptr [ %154, %._crit_edge.us95 ], [ %0, %.preheader.us.preheader ]
  br label %91

91:                                               ; preds = %.preheader.us, %91
  %indvars.iv100 = phi i64 [ 0, %.preheader.us ], [ %indvars.iv.next101, %91 ]
  %92 = load i8, ptr %6, align 1, !tbaa !128
  %93 = sext i8 %92 to i32
  %94 = getelementptr i16, ptr %.193.us, i64 %indvars.iv100
  %95 = getelementptr i8, ptr %94, i64 -768
  %96 = load i16, ptr %95, align 2, !tbaa !124
  %97 = sext i16 %96 to i32
  %98 = mul nsw i32 %97, %93
  %99 = load i8, ptr %83, align 1, !tbaa !128
  %100 = sext i8 %99 to i32
  %101 = getelementptr i8, ptr %94, i64 -512
  %102 = load i16, ptr %101, align 2, !tbaa !124
  %103 = sext i16 %102 to i32
  %104 = mul nsw i32 %103, %100
  %105 = add nsw i32 %104, %98
  %106 = load i8, ptr %84, align 1, !tbaa !128
  %107 = sext i8 %106 to i32
  %108 = getelementptr i8, ptr %94, i64 -256
  %109 = load i16, ptr %108, align 2, !tbaa !124
  %110 = sext i16 %109 to i32
  %111 = mul nsw i32 %110, %107
  %112 = add nsw i32 %105, %111
  %113 = load i8, ptr %85, align 1, !tbaa !128
  %114 = sext i8 %113 to i32
  %115 = load i16, ptr %94, align 2, !tbaa !124
  %116 = sext i16 %115 to i32
  %117 = mul nsw i32 %116, %114
  %118 = add nsw i32 %112, %117
  %119 = load i8, ptr %86, align 1, !tbaa !128
  %120 = sext i8 %119 to i32
  %121 = getelementptr inbounds nuw i8, ptr %94, i64 256
  %122 = load i16, ptr %121, align 2, !tbaa !124
  %123 = sext i16 %122 to i32
  %124 = mul nsw i32 %123, %120
  %125 = add nsw i32 %118, %124
  %126 = load i8, ptr %87, align 1, !tbaa !128
  %127 = sext i8 %126 to i32
  %128 = getelementptr inbounds nuw i8, ptr %94, i64 512
  %129 = load i16, ptr %128, align 2, !tbaa !124
  %130 = sext i16 %129 to i32
  %131 = mul nsw i32 %130, %127
  %132 = add nsw i32 %125, %131
  %133 = load i8, ptr %88, align 1, !tbaa !128
  %134 = sext i8 %133 to i32
  %135 = getelementptr inbounds nuw i8, ptr %94, i64 768
  %136 = load i16, ptr %135, align 2, !tbaa !124
  %137 = sext i16 %136 to i32
  %138 = mul nsw i32 %137, %134
  %139 = add nsw i32 %132, %138
  %140 = load i8, ptr %89, align 1, !tbaa !128
  %141 = sext i8 %140 to i32
  %142 = getelementptr inbounds nuw i8, ptr %94, i64 1024
  %143 = load i16, ptr %142, align 2, !tbaa !124
  %144 = sext i16 %143 to i32
  %145 = mul nsw i32 %144, %141
  %146 = add nsw i32 %139, %145
  %147 = ashr i32 %146, 6
  %148 = add nsw i32 %147, 32
  %149 = ashr i32 %148, 6
  %.not.i.us = icmp ult i32 %149, 256
  %isnotneg.i.us = icmp sgt i32 %149, -1
  %150 = sext i1 %isnotneg.i.us to i8
  %151 = trunc nuw i32 %149 to i8
  %.0.i.us = select i1 %.not.i.us, i8 %151, i8 %150
  %152 = getelementptr inbounds nuw i8, ptr %.08391.us, i64 %indvars.iv100
  store i8 %.0.i.us, ptr %152, align 1, !tbaa !128
  %indvars.iv.next101 = add nuw nsw i64 %indvars.iv100, 1
  %exitcond104.not = icmp eq i64 %indvars.iv.next101, %wide.trip.count103
  br i1 %exitcond104.not, label %._crit_edge.us95, label %91, !llvm.loop !670

._crit_edge.us95:                                 ; preds = %91
  %153 = getelementptr inbounds nuw i8, ptr %.193.us, i64 256
  %154 = getelementptr inbounds i8, ptr %.08391.us, i64 %1
  %155 = add nuw nsw i32 %.07992.us, 1
  %exitcond105.not = icmp eq i32 %155, %4
  br i1 %exitcond105.not, label %._crit_edge94, label %.preheader.us, !llvm.loop !671

._crit_edge94:                                    ; preds = %._crit_edge.us95, %8, %.preheader.lr.ph, %._crit_edge89
  call void @llvm.lifetime.end.p0(i64 34560, ptr nonnull %9) #14
  ret void
}